; Function Attrs: mustprogress uwtable
define hidden void @_ZN5nlsat7explainclEjPKN3sat7literalERNS_21scoped_literal_vectorE(ptr noundef nonnull readonly align 8 captures(none) dereferenceable(8) %0, i32 noundef %1, ptr noundef %2, ptr noundef nonnull align 8 dereferenceable(16) %3) local_unnamed_addr #4 align 2 {
  %5 = load ptr, ptr %0, align 8, !tbaa !3
  %6 = getelementptr inbounds nuw i8, ptr %5, i64 224
  store ptr %3, ptr %6, align 8, !tbaa !65
  tail call void @_ZN5nlsat7explain3imp7processEjPKN3sat7literalE(ptr noundef nonnull align 8 dereferenceable(296) %5, i32 noundef %1, ptr noundef %2)
  %7 = load ptr, ptr %6, align 8, !tbaa !65
  %8 = getelementptr inbounds nuw i8, ptr %7, i64 8
  %9 = load ptr, ptr %8, align 8, !tbaa !55
  %10 = icmp eq ptr %9, null
  br i1 %10, label %_ZN5nlsat7explain3impclEjPKN3sat7literalERNS_21scoped_literal_vectorE.exit, label %_ZNK5nlsat21scoped_literal_vector3endEv.exit.i.i

_ZNK5nlsat21scoped_literal_vector3endEv.exit.i.i: ; preds = %4
  %11 = getelementptr inbounds i8, ptr %9, i64 -4
  %12 = load i32, ptr %11, align 4, !tbaa !61
  %13 = zext i32 %12 to i64
  %14 = getelementptr inbounds nuw %"class.sat::literal", ptr %9, i64 %13
  %.not7.i.i = icmp eq i32 %12, 0
  br i1 %.not7.i.i, label %_ZN5nlsat7explain3impclEjPKN3sat7literalERNS_21scoped_literal_vectorE.exit, label %.lr.ph.i.i

.lr.ph.i.i:                                       ; preds = %_ZNK5nlsat21scoped_literal_vector3endEv.exit.i.i
  %15 = getelementptr inbounds nuw i8, ptr %5, i64 232
  br label %16

16:                                               ; preds = %16, %.lr.ph.i.i
  %.08.i.i = phi ptr [ %9, %.lr.ph.i.i ], [ %21, %16 ]
  %17 = load i32, ptr %.08.i.i, align 4, !tbaa !61
  %18 = load ptr, ptr %15, align 8, !tbaa !66
  %19 = zext i32 %17 to i64
  %20 = getelementptr inbounds nuw i8, ptr %18, i64 %19
  store i8 0, ptr %20, align 1, !tbaa !67
  %21 = getelementptr inbounds nuw i8, ptr %.08.i.i, i64 4
  %.not.i.i = icmp eq ptr %21, %14
  br i1 %.not.i.i, label %_ZN5nlsat7explain3impclEjPKN3sat7literalERNS_21scoped_literal_vectorE.exit, label %16

_ZN5nlsat7explain3impclEjPKN3sat7literalERNS_21scoped_literal_vectorE.exit: ; preds = %16, %4, %_ZNK5nlsat21scoped_literal_vector3endEv.exit.i.i
  store ptr null, ptr %6, align 8, !tbaa !65
  ret void
}